target datalayout = "e-m:e-p270:32:32-p271:32:32-p272:64:64-i64:64-i128:128-f80:128-n8:16:32:64-S128"
target triple = "x86_64-pc-linux-gnu"

%struct.grpc_slice = type { ptr, %"union.grpc_slice::grpc_slice_data" }
%"union.grpc_slice::grpc_slice_data" = type { %"struct.grpc_slice::grpc_slice_data::grpc_slice_refcounted", [8 x i8] }
%"struct.grpc_slice::grpc_slice_data::grpc_slice_refcounted" = type { i64, ptr }
%struct.grpc_slice_buffer = type { ptr, ptr, i64, i64, i64, [6 x %struct.grpc_slice] }
%"class.grpc_core::DebugLocation" = type { i8 }
%"struct.grpc_slice::grpc_slice_data::grpc_slice_inlined" = type { i8, [23 x i8] }
%"class.absl::lts_20240722::log_internal::NullStream" = type { i8 }
%struct.grpc_slice_refcount = type { %"struct.std::atomic", ptr }
%"struct.std::atomic" = type { %"struct.std::__atomic_base" }
%"struct.std::__atomic_base" = type { i64 }

; Function Attrs: alwaysinline mustprogress nounwind uwtable
define linkonce_odr noundef i64 @_ZNSt13__atomic_baseImE9fetch_subEmSt12memory_order(ptr noundef nonnull align 8 dereferenceable(8) %0, i64 noundef %1, i32 noundef %2) #15 comdat align 2 {
  %4 = alloca ptr, align 8
  %5 = alloca i64, align 8
  %6 = alloca i32, align 4
  %7 = alloca i64, align 8
  %8 = alloca i64, align 8
  store ptr %0, ptr %4, align 8, !tbaa !75
  store i64 %1, ptr %5, align 8, !tbaa !16
  store i32 %2, ptr %6, align 4, !tbaa !77
  %9 = load ptr, ptr %4, align 8
  %10 = getelementptr inbounds nuw %"struct.std::__atomic_base", ptr %9, i32 0, i32 0
  %11 = load i32, ptr %6, align 4, !tbaa !77
  %12 = load i64, ptr %5, align 8, !tbaa !16
  store i64 %12, ptr %7, align 8, !tbaa !16
  switch i32 %11, label %13 [
    i32 1, label %16
    i32 2, label %16
    i32 3, label %19
    i32 4, label %22
    i32 5, label %25
  ]

13:                                               ; preds = %3
  %14 = load i64, ptr %7, align 8
  %15 = atomicrmw sub ptr %10, i64 %14 monotonic, align 8
  store i64 %15, ptr %8, align 8
  br label %28

16:                                               ; preds = %3, %3
  %17 = load i64, ptr %7, align 8
  %18 = atomicrmw sub ptr %10, i64 %17 acquire, align 8
  store i64 %18, ptr %8, align 8
  br label %28

19:                                               ; preds = %3
  %20 = load i64, ptr %7, align 8
  %21 = atomicrmw sub ptr %10, i64 %20 release, align 8
  store i64 %21, ptr %8, align 8
  br label %28

22:                                               ; preds = %3
  %23 = load i64, ptr %7, align 8
  %24 = atomicrmw sub ptr %10, i64 %23 acq_rel, align 8
  store i64 %24, ptr %8, align 8
  br label %28

25:                                               ; preds = %3
  %26 = load i64, ptr %7, align 8
  %27 = atomicrmw sub ptr %10, i64 %26 seq_cst, align 8
  store i64 %27, ptr %8, align 8
  br label %28

28:                                               ; preds = %25, %22, %19, %16, %13
  %29 = load i64, ptr %8, align 8, !tbaa !16
  ret i64 %29
}

; Function Attrs: mustprogress uwtable
define linkonce_odr void @_ZN19grpc_slice_refcount5UnrefEN9grpc_core13DebugLocationE(ptr noundef nonnull align 8 dereferenceable(16) %0) #4 comdat align 2 {
  %2 = alloca ptr, align 8
  %3 = alloca i64, align 8
  store ptr %0, ptr %2, align 8, !tbaa !25
  %4 = load ptr, ptr %2, align 8
  call void @llvm.lifetime.start.p0(i64 8, ptr %3) #3
  %5 = getelementptr inbounds nuw %struct.grpc_slice_refcount, ptr %4, i32 0, i32 0
  %6 = call noundef i64 @_ZNSt13__atomic_baseImE9fetch_subEmSt12memory_order(ptr noundef nonnull align 8 dereferenceable(8) %5, i64 noundef 1, i32 noundef 4) #3
  store i64 %6, ptr %3, align 8, !tbaa !16
  %7 = load i64, ptr %3, align 8, !tbaa !16
  %8 = icmp eq i64 %7, 1
  br i1 %8, label %9, label %12

9:                                                ; preds = %1
  %10 = getelementptr inbounds nuw %struct.grpc_slice_refcount, ptr %4, i32 0, i32 1
  %11 = load ptr, ptr %10, align 8, !tbaa !79
  call void %11(ptr noundef %4)
  br label %12

12:                                               ; preds = %9, %1
  call void @llvm.lifetime.end.p0(i64 8, ptr %3) #3
  ret void
}

; Function Attrs: inlinehint mustprogress uwtable
define linkonce_odr void @_ZN9grpc_core11CSliceUnrefERK10grpc_sliceNS_13DebugLocationE(ptr noundef nonnull align 8 dereferenceable(32) %0) #7 comdat {
  %2 = alloca ptr, align 8
  store ptr %0, ptr %2, align 8, !tbaa !17
  %3 = load ptr, ptr %2, align 8, !tbaa !17
  %4 = getelementptr inbounds nuw %struct.grpc_slice, ptr %3, i32 0, i32 0
  %5 = load ptr, ptr %4, align 8, !tbaa !19
  %6 = ptrtoint ptr %5 to i64
  %7 = icmp ugt i64 %6, 1
  br i1 %7, label %8, label %12

8:                                                ; preds = %1
  %9 = load ptr, ptr %2, align 8, !tbaa !17
  %10 = getelementptr inbounds nuw %struct.grpc_slice, ptr %9, i32 0, i32 0
  %11 = load ptr, ptr %10, align 8, !tbaa !19
  call void @_ZN19grpc_slice_refcount5UnrefEN9grpc_core13DebugLocationE(ptr noundef nonnull align 8 dereferenceable(16) %11)
  br label %12

12:                                               ; preds = %8, %1
  ret void
}

; Function Attrs: mustprogress nounwind uwtable
define linkonce_odr void @_ZN9grpc_core13DebugLocationC2Ev(ptr noundef nonnull align 1 dereferenceable(1) %0) unnamed_addr #6 comdat align 2 {
  %2 = alloca ptr, align 8
  store ptr %0, ptr %2, align 8, !tbaa !37
  ret void
}

; Function Attrs: mustprogress nounwind uwtable
define linkonce_odr noundef nonnull align 1 dereferenceable(1) ptr @_ZN4absl12lts_2024072212log_internal10NullStream14InternalStreamEv(ptr noundef nonnull align 1 dereferenceable(1) %0) #6 comdat align 2 {
  %2 = alloca ptr, align 8
  store ptr %0, ptr %2, align 8, !tbaa !73
  %3 = load ptr, ptr %2, align 8
  ret ptr %3
}

; Function Attrs: mustprogress uwtable
define void @_Z30grpc_slice_buffer_remove_firstP17grpc_slice_buffer(ptr noundef %0) #4 {
  %2 = alloca ptr, align 8
  %3 = alloca %"class.absl::lts_20240722::log_internal::NullStream", align 1
  %4 = alloca %"class.grpc_core::DebugLocation", align 1
  store ptr %0, ptr %2, align 8, !tbaa !10
  br label %5

5:                                                ; preds = %6, %1
  br i1 false, label %6, label %8

6:                                                ; preds = %5
  call void @llvm.lifetime.start.p0(i64 1, ptr %3) #3
  %7 = call noundef nonnull align 1 dereferenceable(1) ptr @_ZN4absl12lts_2024072212log_internal10NullStream14InternalStreamEv(ptr noundef nonnull align 1 dereferenceable(1) %3)
  call void @llvm.lifetime.end.p0(i64 1, ptr %3) #3
  br label %5, !llvm.loop !72

8:                                                ; preds = %5
  %9 = load ptr, ptr %2, align 8, !tbaa !10
  %10 = getelementptr inbounds nuw %struct.grpc_slice_buffer, ptr %9, i32 0, i32 1
  %11 = load ptr, ptr %10, align 8, !tbaa !18
  %12 = getelementptr inbounds %struct.grpc_slice, ptr %11, i64 0
  %13 = getelementptr inbounds nuw %struct.grpc_slice, ptr %12, i32 0, i32 0
  %14 = load ptr, ptr %13, align 8, !tbaa !19
  %15 = icmp ne ptr %14, null
  br i1 %15, label %16, label %24

16:                                               ; preds = %8
  %17 = load ptr, ptr %2, align 8, !tbaa !10
  %18 = getelementptr inbounds nuw %struct.grpc_slice_buffer, ptr %17, i32 0, i32 1
  %19 = load ptr, ptr %18, align 8, !tbaa !18
  %20 = getelementptr inbounds %struct.grpc_slice, ptr %19, i64 0
  %21 = getelementptr inbounds nuw %struct.grpc_slice, ptr %20, i32 0, i32 1
  %22 = getelementptr inbounds nuw %"struct.grpc_slice::grpc_slice_data::grpc_slice_refcounted", ptr %21, i32 0, i32 0
  %23 = load i64, ptr %22, align 8, !tbaa !22
  br label %33

24:                                               ; preds = %8
  %25 = load ptr, ptr %2, align 8, !tbaa !10
  %26 = getelementptr inbounds nuw %struct.grpc_slice_buffer, ptr %25, i32 0, i32 1
  %27 = load ptr, ptr %26, align 8, !tbaa !18
  %28 = getelementptr inbounds %struct.grpc_slice, ptr %27, i64 0
  %29 = getelementptr inbounds nuw %struct.grpc_slice, ptr %28, i32 0, i32 1
  %30 = getelementptr inbounds nuw %"struct.grpc_slice::grpc_slice_data::grpc_slice_inlined", ptr %29, i32 0, i32 0
  %31 = load i8, ptr %30, align 8, !tbaa !22
  %32 = zext i8 %31 to i64
  br label %33

33:                                               ; preds = %24, %16
  %34 = phi i64 [ %23, %16 ], [ %32, %24 ]
  %35 = load ptr, ptr %2, align 8, !tbaa !10
  %36 = getelementptr inbounds nuw %struct.grpc_slice_buffer, ptr %35, i32 0, i32 4
  %37 = load i64, ptr %36, align 8, !tbaa !23
  %38 = sub i64 %37, %34
  store i64 %38, ptr %36, align 8, !tbaa !23
  %39 = load ptr, ptr %2, align 8, !tbaa !10
  %40 = getelementptr inbounds nuw %struct.grpc_slice_buffer, ptr %39, i32 0, i32 1
  %41 = load ptr, ptr %40, align 8, !tbaa !18
  %42 = getelementptr inbounds %struct.grpc_slice, ptr %41, i64 0
  call void @_ZN9grpc_core13DebugLocationC2Ev(ptr noundef nonnull align 1 dereferenceable(1) %4)
  call void @_ZN9grpc_core11CSliceUnrefERK10grpc_sliceNS_13DebugLocationE(ptr noundef nonnull align 8 dereferenceable(32) %42)
  %43 = load ptr, ptr %2, align 8, !tbaa !10
  %44 = getelementptr inbounds nuw %struct.grpc_slice_buffer, ptr %43, i32 0, i32 1
  %45 = load ptr, ptr %44, align 8, !tbaa !18
  %46 = getelementptr inbounds nuw %struct.grpc_slice, ptr %45, i32 1
  store ptr %46, ptr %44, align 8, !tbaa !18
  %47 = load ptr, ptr %2, align 8, !tbaa !10
  %48 = getelementptr inbounds nuw %struct.grpc_slice_buffer, ptr %47, i32 0, i32 2
  %49 = load i64, ptr %48, align 8, !tbaa !12
  %50 = add i64 %49, -1
  store i64 %50, ptr %48, align 8, !tbaa !12
  %51 = icmp eq i64 %50, 0
  br i1 %51, label %52, label %58

52:                                               ; preds = %33
  %53 = load ptr, ptr %2, align 8, !tbaa !10
  %54 = getelementptr inbounds nuw %struct.grpc_slice_buffer, ptr %53, i32 0, i32 0
  %55 = load ptr, ptr %54, align 8, !tbaa !54
  %56 = load ptr, ptr %2, align 8, !tbaa !10
  %57 = getelementptr inbounds nuw %struct.grpc_slice_buffer, ptr %56, i32 0, i32 1
  store ptr %55, ptr %57, align 8, !tbaa !18
  br label %58

58:                                               ; preds = %52, %33
  ret void
}