; Function Attrs: mustprogress uwtable
define void @_Z30grpc_slice_buffer_remove_firstP17grpc_slice_buffer(ptr noundef captures(none) %0) local_unnamed_addr #3 {
  %2 = getelementptr inbounds nuw i8, ptr %0, i64 8
  %3 = load ptr, ptr %2, align 8, !tbaa !17
  %4 = load ptr, ptr %3, align 8, !tbaa !18
  %.not = icmp eq ptr %4, null
  %5 = getelementptr inbounds nuw i8, ptr %3, i64 8
  br i1 %.not, label %.thread, label %11

.thread:                                          ; preds = %1
  %6 = load i8, ptr %5, align 8, !tbaa !9
  %7 = zext i8 %6 to i64
  %8 = getelementptr inbounds nuw i8, ptr %0, i64 32
  %9 = load i64, ptr %8, align 8, !tbaa !20
  %10 = sub i64 %9, %7
  store i64 %10, ptr %8, align 8, !tbaa !20
  br label %_ZN9grpc_core11CSliceUnrefERK10grpc_sliceNS_13DebugLocationE.exit

11:                                               ; preds = %1
  %12 = load i64, ptr %5, align 8, !tbaa !9
  %13 = getelementptr inbounds nuw i8, ptr %0, i64 32
  %14 = load i64, ptr %13, align 8, !tbaa !20
  %15 = sub i64 %14, %12
  store i64 %15, ptr %13, align 8, !tbaa !20
  %16 = icmp ugt ptr %4, inttoptr (i64 1 to ptr)
  br i1 %16, label %17, label %_ZN9grpc_core11CSliceUnrefERK10grpc_sliceNS_13DebugLocationE.exit

17:                                               ; preds = %11
  %18 = atomicrmw sub ptr %4, i64 1 acq_rel, align 8
  %19 = icmp eq i64 %18, 1
  br i1 %19, label %20, label %_ZN9grpc_core11CSliceUnrefERK10grpc_sliceNS_13DebugLocationE.exit

20:                                               ; preds = %17
  %21 = getelementptr inbounds nuw i8, ptr %4, i64 8
  %22 = load ptr, ptr %21, align 8, !tbaa !21
  tail call void %22(ptr noundef nonnull align 8 dereferenceable(16) %4)
  br label %_ZN9grpc_core11CSliceUnrefERK10grpc_sliceNS_13DebugLocationE.exit

_ZN9grpc_core11CSliceUnrefERK10grpc_sliceNS_13DebugLocationE.exit: ; preds = %.thread, %11, %17, %20
  %23 = load ptr, ptr %2, align 8, !tbaa !17
  %24 = getelementptr inbounds nuw i8, ptr %23, i64 32
  store ptr %24, ptr %2, align 8, !tbaa !17
  %25 = getelementptr inbounds nuw i8, ptr %0, i64 16
  %26 = load i64, ptr %25, align 8, !tbaa !13
  %27 = add i64 %26, -1
  store i64 %27, ptr %25, align 8, !tbaa !13
  %28 = icmp eq i64 %27, 0
  br i1 %28, label %29, label %31

29:                                               ; preds = %_ZN9grpc_core11CSliceUnrefERK10grpc_sliceNS_13DebugLocationE.exit
  %30 = load ptr, ptr %0, align 8, !tbaa !25
  store ptr %30, ptr %2, align 8, !tbaa !17
  br label %31

31:                                               ; preds = %29, %_ZN9grpc_core11CSliceUnrefERK10grpc_sliceNS_13DebugLocationE.exit
  ret void
}